target datalayout = "e-m:e-p270:32:32-p271:32:32-p272:64:64-i64:64-i128:128-f80:128-n8:16:32:64-S128"
target triple = "x86_64-pc-linux-gnu"

@proto_register_lat.ett = internal global [8 x ptr] [ptr @ett_lat, ptr @ett_data_b_slot_control_flags, ptr @ett_lat_attention_slot_control_flags, ptr @ett_lat_command_modifier, ptr @ett_lat_entry_status, ptr @ett_lat_response_status, ptr @ett_lat_src_node_status, ptr @ett_lat_srvc_status], align 16
@.str.266 = private unnamed_addr constant [21 x i8] c"Local Area Transport\00", align 1
@.str.267 = private unnamed_addr constant [4 x i8] c"LAT\00", align 1
@.str.268 = private unnamed_addr constant [4 x i8] c"lat\00", align 1
@proto_lat = internal global i32 0, align 4
@lat_handle = internal global ptr null, align 8

; Function Attrs: null_pointer_is_valid sspstrong uwtable
define hidden void @proto_register_lat() #0 {
  %1 = alloca ptr, align 8
  call void @llvm.lifetime.start.p0(i64 8, ptr %1) #3
  %2 = call i32 @proto_register_protocol(ptr noundef @.str.266, ptr noundef @.str.267, ptr noundef @.str.268)
  store i32 %2, ptr @proto_lat, align 4
  %3 = load i32, ptr @proto_lat, align 4
  %4 = call ptr @register_dissector(ptr noundef @.str.268, ptr noundef @dissect_lat, i32 noundef %3)
  store ptr %4, ptr @lat_handle, align 8
  %5 = load i32, ptr @proto_lat, align 4
  call void @proto_register_field_array(i32 noundef %5, ptr noundef @proto_register_lat.hf, i32 noundef 130)
  call void @proto_register_subtree_array(ptr noundef @proto_register_lat.ett, i32 noundef 8)
  %6 = load i32, ptr @proto_lat, align 4
  %7 = call ptr @expert_register_protocol(i32 noundef %6)
  store ptr %7, ptr %1, align 8
  %8 = load ptr, ptr %1, align 8
  call void @expert_register_field_array(ptr noundef %8, ptr noundef @proto_register_lat.ei, i32 noundef 4)
  call void @llvm.lifetime.end.p0(i64 8, ptr %1) #3
  ret void
}